; Function Attrs: mustprogress uwtable
define void @_ZN6icu_7511TailoredSet9addSuffixEiRKNS_13UnicodeStringE(ptr noundef nonnull align 8 dereferenceable(100) %this, i32 noundef %c, ptr noundef nonnull align 8 dereferenceable(64) %sfx) local_unnamed_addr #0 align 2 personality ptr @__gxx_personality_v0 {
entry:
  %ref.tmp = alloca %"class.icu_75::UnicodeString", align 8
  %tailored = getelementptr inbounds i8, ptr %this, i64 16
  %0 = load ptr, ptr %tailored, align 8
  %unreversedPrefix = getelementptr inbounds i8, ptr %this, i64 24
  call void @_ZN6icu_7513UnicodeStringC1ERKS0_(ptr noundef nonnull align 8 dereferenceable(64) %ref.tmp, ptr noundef nonnull align 8 dereferenceable(64) %unreversedPrefix)
  %call = invoke noundef nonnull align 8 dereferenceable(64) ptr @_ZN6icu_7513UnicodeString6appendEi(ptr noundef nonnull align 8 dereferenceable(64) %ref.tmp, i32 noundef %c)
          to label %invoke.cont unwind label %lpad

invoke.cont:                                      ; preds = %entry
  %fUnion.i.i.i = getelementptr inbounds i8, ptr %sfx, i64 8
  %1 = load i16, ptr %fUnion.i.i.i, align 8
  %cmp.i.i.i = icmp slt i16 %1, 0
  %2 = ashr i16 %1, 5
  %shr.i.i.i = sext i16 %2 to i32
  %fLength.i.i = getelementptr inbounds i8, ptr %sfx, i64 12
  %3 = load i32, ptr %fLength.i.i, align 4
  %cond.i.i = select i1 %cmp.i.i.i, i32 %3, i32 %shr.i.i.i
  %call2.i1 = invoke noundef nonnull align 8 dereferenceable(64) ptr @_ZN6icu_7513UnicodeString8doAppendERKS0_ii(ptr noundef nonnull align 8 dereferenceable(64) %call, ptr noundef nonnull align 8 dereferenceable(64) %sfx, i32 noundef 0, i32 noundef %cond.i.i)
          to label %invoke.cont2 unwind label %lpad

invoke.cont2:                                     ; preds = %invoke.cont
  %call5 = invoke noundef nonnull align 8 dereferenceable(200) ptr @_ZN6icu_7510UnicodeSet3addERKNS_13UnicodeStringE(ptr noundef nonnull align 8 dereferenceable(200) %0, ptr noundef nonnull align 8 dereferenceable(64) %call2.i1)
          to label %invoke.cont4 unwind label %lpad

invoke.cont4:                                     ; preds = %invoke.cont2
  call void @_ZN6icu_7513UnicodeStringD1Ev(ptr noundef nonnull align 8 dereferenceable(64) %ref.tmp) #9
  ret void

lpad:                                             ; preds = %invoke.cont, %invoke.cont2, %entry
  %4 = landingpad { ptr, i32 }
          cleanup
  call void @_ZN6icu_7513UnicodeStringD1Ev(ptr noundef nonnull align 8 dereferenceable(64) %ref.tmp) #9
  resume { ptr, i32 } %4
}